; Function Attrs: nounwind uwtable
define internal i32 @drbg_hash_uninstantiate(ptr noundef %0) #0 {
  %2 = getelementptr inbounds nuw i8, ptr %0, i64 240
  %3 = load ptr, ptr %2, align 8, !tbaa !3
  %4 = getelementptr inbounds nuw i8, ptr %3, i64 40
  tail call void @OPENSSL_cleanse(ptr noundef nonnull %4, i64 noundef 111) #6
  %5 = getelementptr inbounds nuw i8, ptr %3, i64 151
  tail call void @OPENSSL_cleanse(ptr noundef nonnull %5, i64 noundef 111) #6
  %6 = getelementptr inbounds nuw i8, ptr %3, i64 262
  tail call void @OPENSSL_cleanse(ptr noundef nonnull %6, i64 noundef 111) #6
  %7 = tail call i32 @ossl_prov_drbg_uninstantiate(ptr noundef %0) #6
  ret i32 %7
}